target datalayout = "e-m:e-p270:32:32-p271:32:32-p272:64:64-i64:64-i128:128-f80:128-n8:16:32:64-S128"
target triple = "x86_64-pc-linux-gnu"

%struct.sockaddr_storage = type { i16, [118 x i8], i64 }
%struct.sockaddr_in6 = type { i16, i16, i32, %struct.in6_addr, i32 }
%struct.in6_addr = type { %union.anon }
%union.anon = type { [4 x i32] }
%struct.sockaddr_in = type { i16, i16, %struct.in_addr, [8 x i8] }
%struct.in_addr = type { i32 }

; Function Attrs: nounwind uwtable
define dso_local void @slurm_pack_addr(ptr noundef %0, ptr noundef %1) #0 {
  %3 = alloca ptr, align 8
  %4 = alloca ptr, align 8
  %5 = alloca ptr, align 8
  %6 = alloca ptr, align 8
  store ptr %0, ptr %3, align 8
  store ptr %1, ptr %4, align 8
  %7 = load ptr, ptr %3, align 8
  %8 = getelementptr inbounds nuw %struct.sockaddr_storage, ptr %7, i32 0, i32 0
  %9 = load i16, ptr %8, align 8
  %10 = load ptr, ptr %4, align 8
  call void @pack16(i16 noundef zeroext %9, ptr noundef %10)
  %11 = load ptr, ptr %3, align 8
  %12 = getelementptr inbounds nuw %struct.sockaddr_storage, ptr %11, i32 0, i32 0
  %13 = load i16, ptr %12, align 8
  %14 = zext i16 %13 to i32
  %15 = icmp eq i32 %14, 10
  br i1 %15, label %16, label %27

16:                                               ; preds = %2
  call void @llvm.lifetime.start.p0(i64 8, ptr %5) #9
  %17 = load ptr, ptr %3, align 8
  store ptr %17, ptr %5, align 8
  %18 = load ptr, ptr %5, align 8
  %19 = getelementptr inbounds nuw %struct.sockaddr_in6, ptr %18, i32 0, i32 3
  %20 = getelementptr inbounds nuw %struct.in6_addr, ptr %19, i32 0, i32 0
  %21 = getelementptr inbounds [16 x i8], ptr %20, i64 0, i64 0
  %22 = load ptr, ptr %4, align 8
  call void @packmem(ptr noundef %21, i32 noundef 16, ptr noundef %22)
  %23 = load ptr, ptr %5, align 8
  %24 = getelementptr inbounds nuw %struct.sockaddr_in6, ptr %23, i32 0, i32 1
  %25 = load i16, ptr %24, align 2
  %26 = load ptr, ptr %4, align 8
  call void @pack16(i16 noundef zeroext %25, ptr noundef %26)
  call void @llvm.lifetime.end.p0(i64 8, ptr %5) #9
  br label %45

27:                                               ; preds = %2
  %28 = load ptr, ptr %3, align 8
  %29 = getelementptr inbounds nuw %struct.sockaddr_storage, ptr %28, i32 0, i32 0
  %30 = load i16, ptr %29, align 8
  %31 = zext i16 %30 to i32
  %32 = icmp eq i32 %31, 2
  br i1 %32, label %33, label %44

33:                                               ; preds = %27
  call void @llvm.lifetime.start.p0(i64 8, ptr %6) #9
  %34 = load ptr, ptr %3, align 8
  store ptr %34, ptr %6, align 8
  %35 = load ptr, ptr %6, align 8
  %36 = getelementptr inbounds nuw %struct.sockaddr_in, ptr %35, i32 0, i32 2
  %37 = getelementptr inbounds nuw %struct.in_addr, ptr %36, i32 0, i32 0
  %38 = load i32, ptr %37, align 4
  %39 = load ptr, ptr %4, align 8
  call void @pack32(i32 noundef %38, ptr noundef %39)
  %40 = load ptr, ptr %6, align 8
  %41 = getelementptr inbounds nuw %struct.sockaddr_in, ptr %40, i32 0, i32 1
  %42 = load i16, ptr %41, align 2
  %43 = load ptr, ptr %4, align 8
  call void @pack16(i16 noundef zeroext %42, ptr noundef %43)
  call void @llvm.lifetime.end.p0(i64 8, ptr %6) #9
  br label %44

44:                                               ; preds = %33, %27
  br label %45

45:                                               ; preds = %44, %16
  ret void
}