; Function Attrs: nounwind uwtable
define dso_local void @slurm_pack_addr(ptr noundef %0, ptr noundef %1) local_unnamed_addr #0 {
  %3 = load i16, ptr %0, align 8
  tail call void @pack16(i16 noundef zeroext %3, ptr noundef %1) #11
  %4 = load i16, ptr %0, align 8
  switch i16 %4, label %12 [
    i16 10, label %5
    i16 2, label %7
  ]

5:                                                ; preds = %2
  %6 = getelementptr inbounds nuw i8, ptr %0, i64 8
  tail call void @packmem(ptr noundef nonnull %6, i32 noundef 16, ptr noundef %1) #11
  br label %.sink.split

7:                                                ; preds = %2
  %8 = getelementptr inbounds nuw i8, ptr %0, i64 4
  %9 = load i32, ptr %8, align 4
  tail call void @pack32(i32 noundef %9, ptr noundef %1) #11
  br label %.sink.split

.sink.split:                                      ; preds = %5, %7
  %10 = getelementptr inbounds nuw i8, ptr %0, i64 2
  %11 = load i16, ptr %10, align 2
  tail call void @pack16(i16 noundef zeroext %11, ptr noundef %1) #11
  br label %12

12:                                               ; preds = %.sink.split, %2
  ret void
}